target datalayout = "e-m:e-p270:32:32-p271:32:32-p272:64:64-i64:64-i128:128-f80:128-n8:16:32:64-S128"
target triple = "x86_64-pc-linux-gnu"

%struct.curl_trc_feat = type { ptr, i32 }
%struct.connectdata = type { %struct.Curl_llist_node, ptr, ptr, i64, ptr, i64, ptr, ptr, %struct.hostname, ptr, ptr, %struct.hostname, %struct.proxy_info, %struct.proxy_info, %struct.ip_quadruple, %struct.ip_quadruple, ptr, ptr, ptr, ptr, ptr, %struct.curltime, %struct.curltime, %struct.curltime, [2 x i32], [2 x ptr], [2 x ptr], [2 x ptr], %struct.anon, %struct.easy_pollset, %struct.ssl_primary_config, %struct.ssl_primary_config, %struct.ConnectBits, ptr, ptr, %struct.curltime, i32, i32, %struct.Curl_llist, i32, i32, %struct.ntlmdata, %struct.ntlmdata, %union.anon.1, ptr, ptr, i16, i32, i32, i32, i32, i16, i16, i8, i8, i8, i8, i8, i8, i8 }
%struct.Curl_llist_node = type { ptr, ptr, ptr, ptr }
%struct.hostname = type { ptr, ptr, ptr, ptr }
%struct.proxy_info = type { %struct.hostname, i32, i8, ptr, ptr }
%struct.ip_quadruple = type { [46 x i8], [46 x i8], i32, i32 }
%struct.anon = type { [2 x %struct.curltime], i32 }
%struct.easy_pollset = type { [5 x i32], i32, [5 x i8] }
%struct.ssl_primary_config = type { ptr, ptr, ptr, ptr, ptr, ptr, ptr, ptr, ptr, ptr, ptr, ptr, ptr, ptr, i8, i32, i8, i8 }
%struct.ConnectBits = type { i64 }
%struct.curltime = type { i64, i32 }
%struct.Curl_llist = type { ptr, ptr, ptr, i64 }
%struct.ntlmdata = type { i32, [8 x i8], i32, ptr }
%union.anon.1 = type { %struct.ftp_conn }
%struct.ftp_conn = type { %struct.pingpong, ptr, ptr, ptr, ptr, ptr, ptr, ptr, i8, i64, ptr, i64, i32, i32, i32, i32, i32, i16, i8, i8, i8, i8, i8 }
%struct.pingpong = type { i64, i8, ptr, i64, i64, %struct.curltime, i64, %struct.dynbuf, %struct.dynbuf, i64, i64, ptr, ptr }
%struct.dynbuf = type { ptr, i64, i64, i64 }
%struct.Curl_easy = type { i32, i64, i64, ptr, %struct.Curl_llist_node, %struct.Curl_llist_node, i32, i32, %struct.Curl_message, %struct.easy_pollset, %struct.Names, ptr, ptr, ptr, ptr, %struct.SingleRequest, %struct.UserDefined, ptr, ptr, ptr, %struct.Progress, %struct.UrlState, ptr, %struct.PureInfo, %struct.curl_tlssessioninfo }
%struct.Curl_message = type { %struct.Curl_llist_node, %struct.CURLMsg }
%struct.CURLMsg = type { i32, ptr, %union.anon }
%union.anon = type { ptr }
%struct.Names = type { ptr, i32 }
%struct.SingleRequest = type <{ i64, i64, i64, i64, %struct.curltime, i32, i32, i32, i32, i64, i32, i32, i8, i8, [2 x i8], i32, ptr, ptr, %struct.bufq, i64, i64, ptr, ptr, %union.anon.0, ptr, i8, i32, [3 x i8] }>
%struct.bufq = type { ptr, ptr, ptr, ptr, i64, i64, i64, i32 }
%union.anon.0 = type { ptr }
%struct.UserDefined = type <{ ptr, ptr, ptr, ptr, ptr, ptr, i64, i64, i64, ptr, ptr, i64, ptr, ptr, ptr, ptr, ptr, ptr, ptr, ptr, ptr, ptr, ptr, ptr, ptr, ptr, ptr, ptr, ptr, ptr, ptr, ptr, ptr, ptr, ptr, i64, i64, i64, i64, i64, i64, i64, i64, i64, ptr, ptr, %struct.curl_mimepart, ptr, ptr, ptr, i64, %struct.ssl_config_data, %struct.ssl_config_data, ptr, i16, i8, i8, %struct.ssl_general_config, i32, i32, i32, [4 x i8], ptr, ptr, i64, i32, i8, i8, i8, i8, ptr, ptr, ptr, i32, [4 x i8], [74 x ptr], [8 x ptr], i32, i32, i32, [4 x i8], ptr, i32, [4 x i8], ptr, ptr, ptr, ptr, ptr, i32, i32, i32, i32, i32, i32, i32, i32, i64, ptr, ptr, i64, ptr, i64, ptr, ptr, ptr, ptr, i32, i16, i16, i16, i8, i8, i8, i8, i8, i8, i8, i8, i64, [6 x i8] }>
%struct.curl_mimepart = type { ptr, ptr, i32, i32, ptr, ptr, ptr, ptr, ptr, ptr, ptr, ptr, ptr, ptr, ptr, i64, %struct.mime_state, ptr, %struct.mime_encoder_state, i64 }
%struct.mime_state = type { i32, ptr, i64 }
%struct.mime_encoder_state = type { i64, i64, i64, [256 x i8] }
%struct.ssl_config_data = type { %struct.ssl_primary_config, i64, ptr, ptr, ptr, ptr, ptr, ptr, ptr, i16 }
%struct.ssl_general_config = type { i32 }
%struct.Progress = type { i64, %struct.pgrs_dir, %struct.pgrs_dir, i64, i64, i32, i32, i64, i64, i64, i64, i64, i64, i64, i64, i64, %struct.curltime, %struct.curltime, %struct.curltime, %struct.curltime, %struct.curltime, [6 x i64], [6 x %struct.curltime], i32, i8 }
%struct.pgrs_dir = type { i64, i64, i64, %struct.pgrs_measure }
%struct.pgrs_measure = type { %struct.curltime, i64 }
%struct.UrlState = type { %struct.curltime, i64, i64, %struct.dynbuf, ptr, i64, ptr, i32, i32, i32, ptr, i32, i64, i32, ptr, %struct.digestdata, %struct.digestdata, %struct.auth, %struct.auth, %struct.Curl_async, ptr, i8, %struct.curltime, %struct.Curl_tree, %struct.Curl_llist, [15 x %struct.time_node], ptr, ptr, i64, i64, i64, i64, [32 x i8], i64, ptr, ptr, ptr, %struct.urlpieces, ptr, ptr, ptr, ptr, ptr, i64, %struct.dynbuf, %struct.Curl_llist, [2 x %struct.curl_header], ptr, i32, ptr, ptr, %struct.store_netrc, %struct.dynamically_allocated_data, i8, i8, i8, i8, i32 }
%struct.digestdata = type { ptr, ptr, ptr, ptr, ptr, ptr, i32, i8, i8 }
%struct.auth = type { i64, i64, i64, i8 }
%struct.Curl_async = type { ptr, ptr, ptr, ptr, i32, i32, i8 }
%struct.Curl_tree = type { ptr, ptr, ptr, ptr, %struct.curltime, ptr }
%struct.time_node = type { %struct.Curl_llist_node, %struct.curltime, i32 }
%struct.urlpieces = type { ptr, ptr, ptr, ptr, ptr, ptr, ptr, ptr }
%struct.curl_header = type { ptr, ptr, i64, i64, i32, ptr }
%struct.store_netrc = type { %struct.dynbuf, ptr, i8 }
%struct.dynamically_allocated_data = type { ptr, ptr, ptr, ptr, ptr, ptr, ptr, ptr, ptr, ptr, ptr, ptr, ptr, ptr }
%struct.PureInfo = type { i32, i32, i32, i64, i64, i64, i64, i64, i64, i64, ptr, ptr, i64, i32, %struct.ip_quadruple, i32, ptr, i32, %struct.curl_certinfo, i32, i8 }
%struct.curl_certinfo = type { i32, ptr }
%struct.curl_tlssessioninfo = type { i32, ptr }
%struct.smtp_conn = type { %struct.pingpong, %struct.SASL, i32, ptr, i8 }
%struct.SASL = type { ptr, i32, ptr, i16, i16, i16, i8 }

@.str.13 = private unnamed_addr constant [45 x i8] c"No known authentication mechanisms supported\00", align 1
@smtp_state.names = internal constant [13 x ptr] [ptr @.str.37, ptr @.str.38, ptr @.str.39, ptr @.str.40, ptr @.str.5, ptr @.str.41, ptr @.str.42, ptr @.str.43, ptr @.str.44, ptr @.str.45, ptr @.str.29, ptr @.str.46, ptr @.str.47], align 16
@Curl_trc_feat_smtp = external global %struct.curl_trc_feat, align 8
@.str.48 = private unnamed_addr constant [27 x i8] c"state change from %s to %s\00", align 1

; Function Attrs: nounwind uwtable
define internal void @smtp_state(ptr noundef %0, i32 noundef %1) #0 {
  %3 = alloca ptr, align 8
  %4 = alloca i32, align 4
  %5 = alloca ptr, align 8
  store ptr %0, ptr %3, align 8, !tbaa !3
  store i32 %1, ptr %4, align 4, !tbaa !10
  call void @llvm.lifetime.start.p0(i64 8, ptr %5) #7
  %6 = load ptr, ptr %3, align 8, !tbaa !3
  %7 = getelementptr inbounds nuw %struct.Curl_easy, ptr %6, i32 0, i32 3
  %8 = load ptr, ptr %7, align 8, !tbaa !87
  %9 = getelementptr inbounds nuw %struct.connectdata, ptr %8, i32 0, i32 43
  store ptr %9, ptr %5, align 8, !tbaa !97
  %10 = load ptr, ptr %5, align 8, !tbaa !97
  %11 = getelementptr inbounds nuw %struct.smtp_conn, ptr %10, i32 0, i32 2
  %12 = load i32, ptr %11, align 8, !tbaa !105
  %13 = load i32, ptr %4, align 4, !tbaa !10
  %14 = icmp ne i32 %12, %13
  br i1 %14, label %15, label %60

15:                                               ; preds = %2
  br label %16

16:                                               ; preds = %15
  %17 = load ptr, ptr %3, align 8, !tbaa !3
  %18 = icmp ne ptr %17, null
  br i1 %18, label %19, label %57

19:                                               ; preds = %16
  %20 = load ptr, ptr %3, align 8, !tbaa !3
  %21 = getelementptr inbounds nuw %struct.Curl_easy, ptr %20, i32 0, i32 16
  %22 = getelementptr inbounds nuw %struct.UserDefined, ptr %21, i32 0, i32 119
  %23 = load i64, ptr %22, align 2
  %24 = lshr i64 %23, 31
  %25 = and i64 %24, 1
  %26 = trunc i64 %25 to i32
  %27 = icmp ne i32 %26, 0
  br i1 %27, label %28, label %57

28:                                               ; preds = %19
  %29 = load ptr, ptr %3, align 8, !tbaa !3
  %30 = getelementptr inbounds nuw %struct.Curl_easy, ptr %29, i32 0, i32 21
  %31 = getelementptr inbounds nuw %struct.UrlState, ptr %30, i32 0, i32 50
  %32 = load ptr, ptr %31, align 8, !tbaa !12
  %33 = icmp ne ptr %32, null
  br i1 %33, label %34, label %42

34:                                               ; preds = %28
  %35 = load ptr, ptr %3, align 8, !tbaa !3
  %36 = getelementptr inbounds nuw %struct.Curl_easy, ptr %35, i32 0, i32 21
  %37 = getelementptr inbounds nuw %struct.UrlState, ptr %36, i32 0, i32 50
  %38 = load ptr, ptr %37, align 8, !tbaa !12
  %39 = getelementptr inbounds nuw %struct.curl_trc_feat, ptr %38, i32 0, i32 1
  %40 = load i32, ptr %39, align 8, !tbaa !79
  %41 = icmp sge i32 %40, 1
  br i1 %41, label %42, label %57

42:                                               ; preds = %34, %28
  %43 = load i32, ptr getelementptr inbounds nuw (%struct.curl_trc_feat, ptr @Curl_trc_feat_smtp, i32 0, i32 1), align 8, !tbaa !79
  %44 = icmp sge i32 %43, 1
  br i1 %44, label %45, label %57

45:                                               ; preds = %42
  %46 = load ptr, ptr %3, align 8, !tbaa !3
  %47 = load ptr, ptr %5, align 8, !tbaa !97
  %48 = getelementptr inbounds nuw %struct.smtp_conn, ptr %47, i32 0, i32 2
  %49 = load i32, ptr %48, align 8, !tbaa !105
  %50 = zext i32 %49 to i64
  %51 = getelementptr inbounds nuw [13 x ptr], ptr @smtp_state.names, i64 0, i64 %50
  %52 = load ptr, ptr %51, align 8, !tbaa !118
  %53 = load i32, ptr %4, align 4, !tbaa !10
  %54 = zext i32 %53 to i64
  %55 = getelementptr inbounds nuw [13 x ptr], ptr @smtp_state.names, i64 0, i64 %54
  %56 = load ptr, ptr %55, align 8, !tbaa !118
  call void (ptr, ptr, ...) @Curl_trc_smtp(ptr noundef %46, ptr noundef @.str.48, ptr noundef %52, ptr noundef %56)
  br label %57

57:                                               ; preds = %45, %42, %34, %19, %16
  br label %58

58:                                               ; preds = %57
  br label %59

59:                                               ; preds = %58
  br label %60

60:                                               ; preds = %59, %2
  %61 = load i32, ptr %4, align 4, !tbaa !10
  %62 = load ptr, ptr %5, align 8, !tbaa !97
  %63 = getelementptr inbounds nuw %struct.smtp_conn, ptr %62, i32 0, i32 2
  store i32 %61, ptr %63, align 8, !tbaa !105
  call void @llvm.lifetime.end.p0(i64 8, ptr %5) #7
  ret void
}

; Function Attrs: nounwind uwtable
define internal i32 @smtp_perform_authentication(ptr noundef %0) #0 {
  %2 = alloca i32, align 4
  %3 = alloca ptr, align 8
  %4 = alloca i32, align 4
  %5 = alloca ptr, align 8
  %6 = alloca ptr, align 8
  %7 = alloca i32, align 4
  %8 = alloca i32, align 4
  store ptr %0, ptr %3, align 8, !tbaa !3
  call void @llvm.lifetime.start.p0(i64 4, ptr %4) #7
  store i32 0, ptr %4, align 4, !tbaa !10
  call void @llvm.lifetime.start.p0(i64 8, ptr %5) #7
  %9 = load ptr, ptr %3, align 8, !tbaa !3
  %10 = getelementptr inbounds nuw %struct.Curl_easy, ptr %9, i32 0, i32 3
  %11 = load ptr, ptr %10, align 8, !tbaa !87
  store ptr %11, ptr %5, align 8, !tbaa !8
  call void @llvm.lifetime.start.p0(i64 8, ptr %6) #7
  %12 = load ptr, ptr %5, align 8, !tbaa !8
  %13 = getelementptr inbounds nuw %struct.connectdata, ptr %12, i32 0, i32 43
  store ptr %13, ptr %6, align 8, !tbaa !97
  call void @llvm.lifetime.start.p0(i64 4, ptr %7) #7
  %14 = load ptr, ptr %6, align 8, !tbaa !97
  %15 = getelementptr inbounds nuw %struct.smtp_conn, ptr %14, i32 0, i32 4
  %16 = load i8, ptr %15, align 8
  %17 = lshr i8 %16, 4
  %18 = and i8 %17, 1
  %19 = zext i8 %18 to i32
  %20 = icmp ne i32 %19, 0
  br i1 %20, label %21, label %26

21:                                               ; preds = %1
  %22 = load ptr, ptr %6, align 8, !tbaa !97
  %23 = getelementptr inbounds nuw %struct.smtp_conn, ptr %22, i32 0, i32 1
  %24 = load ptr, ptr %3, align 8, !tbaa !3
  %25 = call zeroext i1 @Curl_sasl_can_authenticate(ptr noundef %23, ptr noundef %24)
  br i1 %25, label %29, label %26

26:                                               ; preds = %21, %1
  %27 = load ptr, ptr %3, align 8, !tbaa !3
  call void @smtp_state(ptr noundef %27, i32 noundef 0)
  %28 = load i32, ptr %4, align 4, !tbaa !10
  store i32 %28, ptr %2, align 4
  store i32 1, ptr %8, align 4
  br label %76

29:                                               ; preds = %21
  %30 = load ptr, ptr %6, align 8, !tbaa !97
  %31 = getelementptr inbounds nuw %struct.smtp_conn, ptr %30, i32 0, i32 1
  %32 = load ptr, ptr %3, align 8, !tbaa !3
  %33 = call i32 @Curl_sasl_start(ptr noundef %31, ptr noundef %32, i1 noundef zeroext false, ptr noundef %7)
  store i32 %33, ptr %4, align 4, !tbaa !10
  %34 = load i32, ptr %4, align 4, !tbaa !10
  %35 = icmp ne i32 %34, 0
  br i1 %35, label %74, label %36

36:                                               ; preds = %29
  %37 = load i32, ptr %7, align 4, !tbaa !10
  %38 = icmp eq i32 %37, 1
  br i1 %38, label %39, label %41

39:                                               ; preds = %36
  %40 = load ptr, ptr %3, align 8, !tbaa !3
  call void @smtp_state(ptr noundef %40, i32 noundef 6)
  br label %73

41:                                               ; preds = %36
  br label %42

42:                                               ; preds = %41
  %43 = load ptr, ptr %3, align 8, !tbaa !3
  %44 = icmp ne ptr %43, null
  br i1 %44, label %45, label %70

45:                                               ; preds = %42
  %46 = load ptr, ptr %3, align 8, !tbaa !3
  %47 = getelementptr inbounds nuw %struct.Curl_easy, ptr %46, i32 0, i32 16
  %48 = getelementptr inbounds nuw %struct.UserDefined, ptr %47, i32 0, i32 119
  %49 = load i64, ptr %48, align 2
  %50 = lshr i64 %49, 31
  %51 = and i64 %50, 1
  %52 = trunc i64 %51 to i32
  %53 = icmp ne i32 %52, 0
  br i1 %53, label %54, label %70

54:                                               ; preds = %45
  %55 = load ptr, ptr %3, align 8, !tbaa !3
  %56 = getelementptr inbounds nuw %struct.Curl_easy, ptr %55, i32 0, i32 21
  %57 = getelementptr inbounds nuw %struct.UrlState, ptr %56, i32 0, i32 50
  %58 = load ptr, ptr %57, align 8, !tbaa !12
  %59 = icmp ne ptr %58, null
  br i1 %59, label %60, label %68

60:                                               ; preds = %54
  %61 = load ptr, ptr %3, align 8, !tbaa !3
  %62 = getelementptr inbounds nuw %struct.Curl_easy, ptr %61, i32 0, i32 21
  %63 = getelementptr inbounds nuw %struct.UrlState, ptr %62, i32 0, i32 50
  %64 = load ptr, ptr %63, align 8, !tbaa !12
  %65 = getelementptr inbounds nuw %struct.curl_trc_feat, ptr %64, i32 0, i32 1
  %66 = load i32, ptr %65, align 8, !tbaa !79
  %67 = icmp sge i32 %66, 1
  br i1 %67, label %68, label %70

68:                                               ; preds = %60, %54
  %69 = load ptr, ptr %3, align 8, !tbaa !3
  call void (ptr, ptr, ...) @Curl_infof(ptr noundef %69, ptr noundef @.str.13)
  br label %70

70:                                               ; preds = %68, %60, %45, %42
  br label %71

71:                                               ; preds = %70
  br label %72

72:                                               ; preds = %71
  store i32 67, ptr %4, align 4, !tbaa !10
  br label %73

73:                                               ; preds = %72, %39
  br label %74

74:                                               ; preds = %73, %29
  %75 = load i32, ptr %4, align 4, !tbaa !10
  store i32 %75, ptr %2, align 4
  store i32 1, ptr %8, align 4
  br label %76

76:                                               ; preds = %74, %26
  call void @llvm.lifetime.end.p0(i64 4, ptr %7) #7
  call void @llvm.lifetime.end.p0(i64 8, ptr %6) #7
  call void @llvm.lifetime.end.p0(i64 8, ptr %5) #7
  call void @llvm.lifetime.end.p0(i64 4, ptr %4) #7
  %77 = load i32, ptr %2, align 4
  ret i32 %77
}