; Function Attrs: nounwind uwtable
define internal fastcc i32 @smtp_perform_authentication(ptr noundef %0) unnamed_addr #0 {
  %2 = alloca i32, align 4
  %3 = getelementptr inbounds nuw i8, ptr %0, i64 24
  %4 = load ptr, ptr %3, align 8, !tbaa !90
  call void @llvm.lifetime.start.p0(i64 4, ptr nonnull %2) #9
  %5 = getelementptr inbounds nuw i8, ptr %4, i64 1296
  %6 = load i8, ptr %5, align 8
  %7 = and i8 %6, 16
  %.not = icmp eq i8 %7, 0
  br i1 %.not, label %11, label %8

8:                                                ; preds = %1
  %9 = getelementptr inbounds nuw i8, ptr %4, i64 1248
  %10 = tail call zeroext i1 @Curl_sasl_can_authenticate(ptr noundef nonnull %9, ptr noundef nonnull %0) #9
  br i1 %10, label %33, label %._crit_edge

._crit_edge:                                      ; preds = %8
  %.pre = load ptr, ptr %3, align 8, !tbaa !90
  br label %11

11:                                               ; preds = %._crit_edge, %1
  %12 = phi ptr [ %.pre, %._crit_edge ], [ %4, %1 ]
  %13 = getelementptr inbounds nuw i8, ptr %12, i64 1280
  %14 = load i32, ptr %13, align 8, !tbaa !103
  %.not33 = icmp eq i32 %14, 0
  br i1 %.not33, label %smtp_state.exit, label %15

15:                                               ; preds = %11
  %16 = getelementptr inbounds nuw i8, ptr %0, i64 2658
  %17 = load i64, ptr %16, align 2
  %18 = and i64 %17, 2147483648
  %.not.i = icmp eq i64 %18, 0
  br i1 %.not.i, label %smtp_state.exit, label %19

19:                                               ; preds = %15
  %20 = getelementptr inbounds nuw i8, ptr %0, i64 4864
  %21 = load ptr, ptr %20, align 8, !tbaa !8
  %.not17.i = icmp eq ptr %21, null
  br i1 %.not17.i, label %28, label %22

22:                                               ; preds = %19
  %23 = getelementptr inbounds nuw i8, ptr %21, i64 8
  %24 = load i32, ptr %23, align 8, !tbaa !77
  %25 = icmp sgt i32 %24, 0
  %26 = load i32, ptr getelementptr inbounds nuw (i8, ptr @Curl_trc_feat_smtp, i64 8), align 8
  %27 = icmp sgt i32 %26, 0
  %or.cond.i = select i1 %25, i1 %27, i1 false
  br i1 %or.cond.i, label %29, label %smtp_state.exit

28:                                               ; preds = %19
  %.old.i = load i32, ptr getelementptr inbounds nuw (i8, ptr @Curl_trc_feat_smtp, i64 8), align 8, !tbaa !77
  %.old1.i = icmp sgt i32 %.old.i, 0
  br i1 %.old1.i, label %29, label %smtp_state.exit

29:                                               ; preds = %28, %22
  %30 = zext i32 %14 to i64
  %31 = getelementptr inbounds nuw [13 x ptr], ptr @smtp_state.names, i64 0, i64 %30
  %32 = load ptr, ptr %31, align 8, !tbaa !81
  tail call void (ptr, ptr, ...) @Curl_trc_smtp(ptr noundef nonnull %0, ptr noundef nonnull @.str.48, ptr noundef %32, ptr noundef nonnull @.str.37) #9
  br label %smtp_state.exit

smtp_state.exit:                                  ; preds = %11, %15, %22, %28, %29
  store i32 0, ptr %13, align 8, !tbaa !103
  br label %72

33:                                               ; preds = %8
  %34 = call i32 @Curl_sasl_start(ptr noundef nonnull %9, ptr noundef nonnull %0, i1 noundef zeroext false, ptr noundef nonnull %2) #9
  %.not21 = icmp eq i32 %34, 0
  br i1 %.not21, label %35, label %72

35:                                               ; preds = %33
  %36 = load i32, ptr %2, align 4, !tbaa !137
  %37 = icmp eq i32 %36, 1
  br i1 %37, label %38, label %60

38:                                               ; preds = %35
  %39 = load ptr, ptr %3, align 8, !tbaa !90
  %40 = getelementptr inbounds nuw i8, ptr %39, i64 1280
  %41 = load i32, ptr %40, align 8, !tbaa !103
  %.not32 = icmp eq i32 %41, 6
  br i1 %.not32, label %smtp_state.exit31, label %42

42:                                               ; preds = %38
  %43 = getelementptr inbounds nuw i8, ptr %0, i64 2658
  %44 = load i64, ptr %43, align 2
  %45 = and i64 %44, 2147483648
  %.not.i26 = icmp eq i64 %45, 0
  br i1 %.not.i26, label %smtp_state.exit31, label %46

46:                                               ; preds = %42
  %47 = getelementptr inbounds nuw i8, ptr %0, i64 4864
  %48 = load ptr, ptr %47, align 8, !tbaa !8
  %.not17.i27 = icmp eq ptr %48, null
  br i1 %.not17.i27, label %55, label %49

49:                                               ; preds = %46
  %50 = getelementptr inbounds nuw i8, ptr %48, i64 8
  %51 = load i32, ptr %50, align 8, !tbaa !77
  %52 = icmp sgt i32 %51, 0
  %53 = load i32, ptr getelementptr inbounds nuw (i8, ptr @Curl_trc_feat_smtp, i64 8), align 8
  %54 = icmp sgt i32 %53, 0
  %or.cond.i28 = select i1 %52, i1 %54, i1 false
  br i1 %or.cond.i28, label %56, label %smtp_state.exit31

55:                                               ; preds = %46
  %.old.i29 = load i32, ptr getelementptr inbounds nuw (i8, ptr @Curl_trc_feat_smtp, i64 8), align 8, !tbaa !77
  %.old1.i30 = icmp sgt i32 %.old.i29, 0
  br i1 %.old1.i30, label %56, label %smtp_state.exit31

56:                                               ; preds = %55, %49
  %57 = zext i32 %41 to i64
  %58 = getelementptr inbounds nuw [13 x ptr], ptr @smtp_state.names, i64 0, i64 %57
  %59 = load ptr, ptr %58, align 8, !tbaa !81
  call void (ptr, ptr, ...) @Curl_trc_smtp(ptr noundef nonnull %0, ptr noundef nonnull @.str.48, ptr noundef %59, ptr noundef nonnull @.str.42) #9
  br label %smtp_state.exit31

smtp_state.exit31:                                ; preds = %38, %42, %49, %55, %56
  store i32 6, ptr %40, align 8, !tbaa !103
  br label %72

60:                                               ; preds = %35
  %61 = getelementptr inbounds nuw i8, ptr %0, i64 2658
  %62 = load i64, ptr %61, align 2
  %63 = and i64 %62, 2147483648
  %.not23 = icmp eq i64 %63, 0
  br i1 %.not23, label %72, label %64

64:                                               ; preds = %60
  %65 = getelementptr inbounds nuw i8, ptr %0, i64 4864
  %66 = load ptr, ptr %65, align 8, !tbaa !8
  %.not24 = icmp eq ptr %66, null
  br i1 %.not24, label %71, label %67

67:                                               ; preds = %64
  %68 = getelementptr inbounds nuw i8, ptr %66, i64 8
  %69 = load i32, ptr %68, align 8, !tbaa !77
  %70 = icmp sgt i32 %69, 0
  br i1 %70, label %71, label %72

71:                                               ; preds = %67, %64
  call void (ptr, ptr, ...) @Curl_infof(ptr noundef nonnull %0, ptr noundef nonnull @.str.13) #9
  br label %72

72:                                               ; preds = %33, %smtp_state.exit31, %71, %67, %60, %smtp_state.exit
  %.0 = phi i32 [ 0, %smtp_state.exit ], [ %34, %33 ], [ 0, %smtp_state.exit31 ], [ 67, %71 ], [ 67, %67 ], [ 67, %60 ]
  call void @llvm.lifetime.end.p0(i64 4, ptr nonnull %2) #9
  ret i32 %.0
}